target datalayout = "e-m:e-p270:32:32-p271:32:32-p272:64:64-i64:64-i128:128-f80:128-n8:16:32:64-S128"
target triple = "x86_64-pc-linux-gnu"

%struct.ForEachState = type { ptr, i32 }
%union.ListCell = type { ptr }
%struct.QualCost = type { double, double }
%struct.Expr = type { i32 }
%struct.PlannerInfo = type { i32, ptr, ptr, i32, ptr, ptr, ptr, ptr, i32, ptr, ptr, ptr, ptr, ptr, ptr, ptr, ptr, i32, ptr, ptr, ptr, ptr, ptr, i8, ptr, ptr, ptr, ptr, ptr, i32, ptr, ptr, ptr, ptr, ptr, ptr, ptr, i32, ptr, ptr, ptr, i32, ptr, ptr, ptr, ptr, ptr, ptr, [8 x ptr], [8 x ptr], ptr, ptr, ptr, ptr, ptr, ptr, ptr, double, double, double, i32, i8, i8, i8, i8, i8, i8, i8, i32, ptr, ptr, i32, i8, i8, i32, ptr, ptr, ptr, ptr, ptr, ptr, i8, ptr }
%struct.List = type { i32, i32, i32, ptr, [0 x %union.ListCell] }
%struct.EquivalenceClass = type { i32, ptr, i32, ptr, ptr, ptr, ptr, i8, i8, i8, i32, i32, i32, ptr }
%struct.EquivalenceMember = type { i32, ptr, ptr, i8, i8, i32, ptr, ptr }
%struct.Node = type { i32 }
%struct.RelOptInfo = type { i32, i32, ptr, double, i8, i8, i8, ptr, ptr, ptr, ptr, ptr, ptr, ptr, ptr, ptr, ptr, i32, i32, i32, i16, i16, ptr, ptr, ptr, ptr, ptr, ptr, ptr, ptr, i32, double, double, ptr, ptr, ptr, i32, i32, i32, i32, i8, ptr, ptr, ptr, ptr, ptr, %struct.QualCost, i32, ptr, i8, i8, ptr, ptr, ptr, ptr, i32, ptr, i8, ptr, ptr, ptr, ptr, ptr, ptr }
%struct.RelabelType = type { %struct.Expr, ptr, i32, i32, i32, i32, i32 }
%struct.ForeignKeyOptInfo = type { i32, i32, i32, i32, [32 x i16], [32 x i16], [32 x i32], i32, i32, i32, i32, [32 x ptr], [32 x ptr], [32 x ptr] }
%struct.Var = type { %struct.Expr, i32, i16, i32, i32, i32, ptr, i32, i32, i32, i16, i32 }

; Function Attrs: inlinehint nounwind uwtable
define internal ptr @list_nth_cell(ptr noundef %0, i32 noundef %1) #2 {
  %3 = alloca ptr, align 8
  %4 = alloca i32, align 4
  store ptr %0, ptr %3, align 8
  store i32 %1, ptr %4, align 4
  %5 = load ptr, ptr %3, align 8
  %6 = getelementptr inbounds nuw %struct.List, ptr %5, i32 0, i32 3
  %7 = load ptr, ptr %6, align 8
  %8 = load i32, ptr %4, align 4
  %9 = sext i32 %8 to i64
  %10 = getelementptr inbounds %union.ListCell, ptr %7, i64 %9
  ret ptr %10
}

; Function Attrs: inlinehint nounwind uwtable
define internal ptr @list_nth(ptr noundef %0, i32 noundef %1) #2 {
  %3 = alloca ptr, align 8
  %4 = alloca i32, align 4
  store ptr %0, ptr %3, align 8
  store i32 %1, ptr %4, align 4
  %5 = load ptr, ptr %3, align 8
  %6 = load i32, ptr %4, align 4
  %7 = call ptr @list_nth_cell(ptr noundef %5, i32 noundef %6)
  %8 = load ptr, ptr %7, align 8
  ret ptr %8
}

; Function Attrs: nounwind uwtable
define dso_local ptr @match_eclasses_to_foreign_key_col(ptr noundef %0, ptr noundef %1, i32 noundef %2) #0 {
  %4 = alloca ptr, align 8
  %5 = alloca ptr, align 8
  %6 = alloca ptr, align 8
  %7 = alloca i32, align 4
  %8 = alloca i32, align 4
  %9 = alloca i16, align 2
  %10 = alloca i32, align 4
  %11 = alloca i16, align 2
  %12 = alloca i32, align 4
  %13 = alloca ptr, align 8
  %14 = alloca ptr, align 8
  %15 = alloca ptr, align 8
  %16 = alloca ptr, align 8
  %17 = alloca i32, align 4
  %18 = alloca ptr, align 8
  %19 = alloca ptr, align 8
  %20 = alloca ptr, align 8
  %21 = alloca ptr, align 8
  %22 = alloca i32, align 4
  %23 = alloca %struct.ForEachState, align 8
  %24 = alloca ptr, align 8
  %25 = alloca ptr, align 8
  store ptr %0, ptr %5, align 8
  store ptr %1, ptr %6, align 8
  store i32 %2, ptr %7, align 4
  call void @llvm.lifetime.start.p0(i64 4, ptr %8) #6
  %26 = load ptr, ptr %6, align 8
  %27 = getelementptr inbounds nuw %struct.ForeignKeyOptInfo, ptr %26, i32 0, i32 1
  %28 = load i32, ptr %27, align 4
  store i32 %28, ptr %8, align 4
  call void @llvm.lifetime.start.p0(i64 2, ptr %9) #6
  %29 = load ptr, ptr %6, align 8
  %30 = getelementptr inbounds nuw %struct.ForeignKeyOptInfo, ptr %29, i32 0, i32 4
  %31 = load i32, ptr %7, align 4
  %32 = sext i32 %31 to i64
  %33 = getelementptr inbounds [32 x i16], ptr %30, i64 0, i64 %32
  %34 = load i16, ptr %33, align 2
  store i16 %34, ptr %9, align 2
  call void @llvm.lifetime.start.p0(i64 4, ptr %10) #6
  %35 = load ptr, ptr %6, align 8
  %36 = getelementptr inbounds nuw %struct.ForeignKeyOptInfo, ptr %35, i32 0, i32 2
  %37 = load i32, ptr %36, align 8
  store i32 %37, ptr %10, align 4
  call void @llvm.lifetime.start.p0(i64 2, ptr %11) #6
  %38 = load ptr, ptr %6, align 8
  %39 = getelementptr inbounds nuw %struct.ForeignKeyOptInfo, ptr %38, i32 0, i32 5
  %40 = load i32, ptr %7, align 4
  %41 = sext i32 %40 to i64
  %42 = getelementptr inbounds [32 x i16], ptr %39, i64 0, i64 %41
  %43 = load i16, ptr %42, align 2
  store i16 %43, ptr %11, align 2
  call void @llvm.lifetime.start.p0(i64 4, ptr %12) #6
  %44 = load ptr, ptr %6, align 8
  %45 = getelementptr inbounds nuw %struct.ForeignKeyOptInfo, ptr %44, i32 0, i32 6
  %46 = load i32, ptr %7, align 4
  %47 = sext i32 %46 to i64
  %48 = getelementptr inbounds [32 x i32], ptr %45, i64 0, i64 %47
  %49 = load i32, ptr %48, align 4
  store i32 %49, ptr %12, align 4
  call void @llvm.lifetime.start.p0(i64 8, ptr %13) #6
  %50 = load ptr, ptr %5, align 8
  %51 = getelementptr inbounds nuw %struct.PlannerInfo, ptr %50, i32 0, i32 7
  %52 = load ptr, ptr %51, align 8
  %53 = load i32, ptr %8, align 4
  %54 = zext i32 %53 to i64
  %55 = getelementptr inbounds nuw ptr, ptr %52, i64 %54
  %56 = load ptr, ptr %55, align 8
  store ptr %56, ptr %13, align 8
  call void @llvm.lifetime.start.p0(i64 8, ptr %14) #6
  %57 = load ptr, ptr %5, align 8
  %58 = getelementptr inbounds nuw %struct.PlannerInfo, ptr %57, i32 0, i32 7
  %59 = load ptr, ptr %58, align 8
  %60 = load i32, ptr %10, align 4
  %61 = zext i32 %60 to i64
  %62 = getelementptr inbounds nuw ptr, ptr %59, i64 %61
  %63 = load ptr, ptr %62, align 8
  store ptr %63, ptr %14, align 8
  call void @llvm.lifetime.start.p0(i64 8, ptr %15) #6
  store ptr null, ptr %15, align 8
  call void @llvm.lifetime.start.p0(i64 8, ptr %16) #6
  call void @llvm.lifetime.start.p0(i64 4, ptr %17) #6
  %64 = load ptr, ptr %13, align 8
  %65 = getelementptr inbounds nuw %struct.RelOptInfo, ptr %64, i32 0, i32 33
  %66 = load ptr, ptr %65, align 8
  %67 = load ptr, ptr %14, align 8
  %68 = getelementptr inbounds nuw %struct.RelOptInfo, ptr %67, i32 0, i32 33
  %69 = load ptr, ptr %68, align 8
  %70 = call ptr @bms_intersect(ptr noundef %66, ptr noundef %69)
  store ptr %70, ptr %16, align 8
  store i32 -1, ptr %17, align 4
  br label %71

71:                                               ; preds = %234, %232, %3
  %72 = load ptr, ptr %16, align 8
  %73 = load i32, ptr %17, align 4
  %74 = call i32 @bms_next_member(ptr noundef %72, i32 noundef %73)
  store i32 %74, ptr %17, align 4
  %75 = icmp sge i32 %74, 0
  br i1 %75, label %76, label %235

76:                                               ; preds = %71
  call void @llvm.lifetime.start.p0(i64 8, ptr %18) #6
  %77 = load ptr, ptr %5, align 8
  %78 = getelementptr inbounds nuw %struct.PlannerInfo, ptr %77, i32 0, i32 22
  %79 = load ptr, ptr %78, align 8
  %80 = load i32, ptr %17, align 4
  %81 = call ptr @list_nth(ptr noundef %79, i32 noundef %80)
  store ptr %81, ptr %18, align 8
  call void @llvm.lifetime.start.p0(i64 8, ptr %19) #6
  store ptr null, ptr %19, align 8
  call void @llvm.lifetime.start.p0(i64 8, ptr %20) #6
  store ptr null, ptr %20, align 8
  call void @llvm.lifetime.start.p0(i64 8, ptr %21) #6
  %82 = load ptr, ptr %18, align 8
  %83 = getelementptr inbounds nuw %struct.EquivalenceClass, ptr %82, i32 0, i32 8
  %84 = load i8, ptr %83, align 1, !range !4, !noundef !5
  %85 = trunc i8 %84 to i1
  br i1 %85, label %86, label %87

86:                                               ; preds = %76
  store i32 2, ptr %22, align 4
  br label %232, !llvm.loop !50

87:                                               ; preds = %76
  call void @llvm.lifetime.start.p0(i64 16, ptr %23) #6
  %88 = getelementptr inbounds nuw %struct.ForEachState, ptr %23, i32 0, i32 0
  %89 = load ptr, ptr %18, align 8
  %90 = getelementptr inbounds nuw %struct.EquivalenceClass, ptr %89, i32 0, i32 3
  %91 = load ptr, ptr %90, align 8
  store ptr %91, ptr %88, align 8
  %92 = getelementptr inbounds nuw %struct.ForEachState, ptr %23, i32 0, i32 1
  store i32 0, ptr %92, align 8
  %93 = getelementptr i8, ptr %23, i64 12
  call void @llvm.memset.p0.i64(ptr align 4 %93, i8 0, i64 4, i1 false)
  br label %94

94:                                               ; preds = %225, %87
  %95 = getelementptr inbounds nuw %struct.ForEachState, ptr %23, i32 0, i32 0
  %96 = load ptr, ptr %95, align 8
  %97 = icmp ne ptr %96, null
  br i1 %97, label %98, label %115

98:                                               ; preds = %94
  %99 = getelementptr inbounds nuw %struct.ForEachState, ptr %23, i32 0, i32 1
  %100 = load i32, ptr %99, align 8
  %101 = getelementptr inbounds nuw %struct.ForEachState, ptr %23, i32 0, i32 0
  %102 = load ptr, ptr %101, align 8
  %103 = getelementptr inbounds nuw %struct.List, ptr %102, i32 0, i32 1
  %104 = load i32, ptr %103, align 4
  %105 = icmp slt i32 %100, %104
  br i1 %105, label %106, label %115

106:                                              ; preds = %98
  %107 = getelementptr inbounds nuw %struct.ForEachState, ptr %23, i32 0, i32 0
  %108 = load ptr, ptr %107, align 8
  %109 = getelementptr inbounds nuw %struct.List, ptr %108, i32 0, i32 3
  %110 = load ptr, ptr %109, align 8
  %111 = getelementptr inbounds nuw %struct.ForEachState, ptr %23, i32 0, i32 1
  %112 = load i32, ptr %111, align 8
  %113 = sext i32 %112 to i64
  %114 = getelementptr inbounds %union.ListCell, ptr %110, i64 %113
  store ptr %114, ptr %21, align 8
  br label %116

115:                                              ; preds = %98, %94
  store ptr null, ptr %21, align 8
  br label %116

116:                                              ; preds = %115, %106
  %117 = phi i32 [ 1, %106 ], [ 0, %115 ]
  %118 = icmp ne i32 %117, 0
  br i1 %118, label %120, label %119

119:                                              ; preds = %116
  store i32 4, ptr %22, align 4
  br label %229

120:                                              ; preds = %116
  call void @llvm.lifetime.start.p0(i64 8, ptr %24) #6
  %121 = load ptr, ptr %21, align 8
  %122 = load ptr, ptr %121, align 8
  store ptr %122, ptr %24, align 8
  call void @llvm.lifetime.start.p0(i64 8, ptr %25) #6
  %123 = load ptr, ptr %24, align 8
  %124 = getelementptr inbounds nuw %struct.EquivalenceMember, ptr %123, i32 0, i32 4
  %125 = load i8, ptr %124, align 1, !range !4, !noundef !5
  %126 = trunc i8 %125 to i1
  br i1 %126, label %127, label %128

127:                                              ; preds = %120
  store i32 6, ptr %22, align 4
  br label %222

128:                                              ; preds = %120
  %129 = load ptr, ptr %24, align 8
  %130 = getelementptr inbounds nuw %struct.EquivalenceMember, ptr %129, i32 0, i32 1
  %131 = load ptr, ptr %130, align 8
  store ptr %131, ptr %25, align 8
  br label %132

132:                                              ; preds = %142, %128
  %133 = load ptr, ptr %25, align 8
  %134 = icmp ne ptr %133, null
  br i1 %134, label %135, label %140

135:                                              ; preds = %132
  %136 = load ptr, ptr %25, align 8
  %137 = getelementptr inbounds nuw %struct.Node, ptr %136, i32 0, i32 0
  %138 = load i32, ptr %137, align 4
  %139 = icmp eq i32 %138, 27
  br label %140

140:                                              ; preds = %135, %132
  %141 = phi i1 [ false, %132 ], [ %139, %135 ]
  br i1 %141, label %142, label %146

142:                                              ; preds = %140
  %143 = load ptr, ptr %25, align 8
  %144 = getelementptr inbounds nuw %struct.RelabelType, ptr %143, i32 0, i32 1
  %145 = load ptr, ptr %144, align 8
  store ptr %145, ptr %25, align 8
  br label %132, !llvm.loop !51

146:                                              ; preds = %140
  %147 = load ptr, ptr %25, align 8
  %148 = icmp ne ptr %147, null
  br i1 %148, label %149, label %154

149:                                              ; preds = %146
  %150 = load ptr, ptr %25, align 8
  %151 = getelementptr inbounds nuw %struct.Node, ptr %150, i32 0, i32 0
  %152 = load i32, ptr %151, align 4
  %153 = icmp eq i32 %152, 6
  br i1 %153, label %155, label %154

154:                                              ; preds = %149, %146
  store i32 6, ptr %22, align 4
  br label %222

155:                                              ; preds = %149
  %156 = load ptr, ptr %25, align 8
  %157 = getelementptr inbounds nuw %struct.Var, ptr %156, i32 0, i32 1
  %158 = load i32, ptr %157, align 4
  %159 = load i32, ptr %8, align 4
  %160 = icmp eq i32 %158, %159
  br i1 %160, label %161, label %171

161:                                              ; preds = %155
  %162 = load ptr, ptr %25, align 8
  %163 = getelementptr inbounds nuw %struct.Var, ptr %162, i32 0, i32 2
  %164 = load i16, ptr %163, align 8
  %165 = sext i16 %164 to i32
  %166 = load i16, ptr %9, align 2
  %167 = sext i16 %166 to i32
  %168 = icmp eq i32 %165, %167
  br i1 %168, label %169, label %171

169:                                              ; preds = %161
  %170 = load ptr, ptr %24, align 8
  store ptr %170, ptr %19, align 8
  br label %188

171:                                              ; preds = %161, %155
  %172 = load ptr, ptr %25, align 8
  %173 = getelementptr inbounds nuw %struct.Var, ptr %172, i32 0, i32 1
  %174 = load i32, ptr %173, align 4
  %175 = load i32, ptr %10, align 4
  %176 = icmp eq i32 %174, %175
  br i1 %176, label %177, label %187

177:                                              ; preds = %171
  %178 = load ptr, ptr %25, align 8
  %179 = getelementptr inbounds nuw %struct.Var, ptr %178, i32 0, i32 2
  %180 = load i16, ptr %179, align 8
  %181 = sext i16 %180 to i32
  %182 = load i16, ptr %11, align 2
  %183 = sext i16 %182 to i32
  %184 = icmp eq i32 %181, %183
  br i1 %184, label %185, label %187

185:                                              ; preds = %177
  %186 = load ptr, ptr %24, align 8
  store ptr %186, ptr %20, align 8
  br label %187

187:                                              ; preds = %185, %177, %171
  br label %188

188:                                              ; preds = %187, %169
  %189 = load ptr, ptr %19, align 8
  %190 = icmp ne ptr %189, null
  br i1 %190, label %191, label %221

191:                                              ; preds = %188
  %192 = load ptr, ptr %20, align 8
  %193 = icmp ne ptr %192, null
  br i1 %193, label %194, label %221

194:                                              ; preds = %191
  %195 = load ptr, ptr %15, align 8
  %196 = icmp eq ptr %195, null
  br i1 %196, label %197, label %200

197:                                              ; preds = %194
  %198 = load i32, ptr %12, align 4
  %199 = call ptr @get_mergejoin_opfamilies(i32 noundef %198)
  store ptr %199, ptr %15, align 8
  br label %200

200:                                              ; preds = %197, %194
  %201 = load ptr, ptr %15, align 8
  %202 = load ptr, ptr %18, align 8
  %203 = getelementptr inbounds nuw %struct.EquivalenceClass, ptr %202, i32 0, i32 1
  %204 = load ptr, ptr %203, align 8
  %205 = call zeroext i1 @equal(ptr noundef %201, ptr noundef %204)
  br i1 %205, label %206, label %220

206:                                              ; preds = %200
  %207 = load ptr, ptr %18, align 8
  %208 = load ptr, ptr %6, align 8
  %209 = getelementptr inbounds nuw %struct.ForeignKeyOptInfo, ptr %208, i32 0, i32 11
  %210 = load i32, ptr %7, align 4
  %211 = sext i32 %210 to i64
  %212 = getelementptr inbounds [32 x ptr], ptr %209, i64 0, i64 %211
  store ptr %207, ptr %212, align 8
  %213 = load ptr, ptr %20, align 8
  %214 = load ptr, ptr %6, align 8
  %215 = getelementptr inbounds nuw %struct.ForeignKeyOptInfo, ptr %214, i32 0, i32 12
  %216 = load i32, ptr %7, align 4
  %217 = sext i32 %216 to i64
  %218 = getelementptr inbounds [32 x ptr], ptr %215, i64 0, i64 %217
  store ptr %213, ptr %218, align 8
  %219 = load ptr, ptr %18, align 8
  store ptr %219, ptr %4, align 8
  store i32 1, ptr %22, align 4
  br label %222

220:                                              ; preds = %200
  store i32 4, ptr %22, align 4
  br label %222

221:                                              ; preds = %191, %188
  store i32 0, ptr %22, align 4
  br label %222

222:                                              ; preds = %221, %220, %206, %154, %127
  call void @llvm.lifetime.end.p0(i64 8, ptr %25) #6
  call void @llvm.lifetime.end.p0(i64 8, ptr %24) #6
  %223 = load i32, ptr %22, align 4
  switch i32 %223, label %229 [
    i32 0, label %224
    i32 6, label %225
  ]

224:                                              ; preds = %222
  br label %225

225:                                              ; preds = %224, %222
  %226 = getelementptr inbounds nuw %struct.ForEachState, ptr %23, i32 0, i32 1
  %227 = load i32, ptr %226, align 8
  %228 = add i32 %227, 1
  store i32 %228, ptr %226, align 8
  br label %94, !llvm.loop !52

229:                                              ; preds = %222, %119
  call void @llvm.lifetime.end.p0(i64 16, ptr %23) #6
  %230 = load i32, ptr %22, align 4
  switch i32 %230, label %232 [
    i32 4, label %231
  ]

231:                                              ; preds = %229
  store i32 0, ptr %22, align 4
  br label %232

232:                                              ; preds = %231, %229, %86
  call void @llvm.lifetime.end.p0(i64 8, ptr %21) #6
  call void @llvm.lifetime.end.p0(i64 8, ptr %20) #6
  call void @llvm.lifetime.end.p0(i64 8, ptr %19) #6
  call void @llvm.lifetime.end.p0(i64 8, ptr %18) #6
  %233 = load i32, ptr %22, align 4
  switch i32 %233, label %236 [
    i32 0, label %234
    i32 2, label %71
  ]

234:                                              ; preds = %232
  br label %71, !llvm.loop !50

235:                                              ; preds = %71
  store ptr null, ptr %4, align 8
  store i32 1, ptr %22, align 4
  br label %236

236:                                              ; preds = %235, %232
  call void @llvm.lifetime.end.p0(i64 4, ptr %17) #6
  call void @llvm.lifetime.end.p0(i64 8, ptr %16) #6
  call void @llvm.lifetime.end.p0(i64 8, ptr %15) #6
  call void @llvm.lifetime.end.p0(i64 8, ptr %14) #6
  call void @llvm.lifetime.end.p0(i64 8, ptr %13) #6
  call void @llvm.lifetime.end.p0(i64 4, ptr %12) #6
  call void @llvm.lifetime.end.p0(i64 2, ptr %11) #6
  call void @llvm.lifetime.end.p0(i64 4, ptr %10) #6
  call void @llvm.lifetime.end.p0(i64 2, ptr %9) #6
  call void @llvm.lifetime.end.p0(i64 4, ptr %8) #6
  %237 = load ptr, ptr %4, align 8
  ret ptr %237
}