; Function Attrs: nounwind uwtable
define dso_local ptr @match_eclasses_to_foreign_key_col(ptr noundef readonly captures(none) %0, ptr noundef captures(none) %1, i32 noundef %2) local_unnamed_addr #0 {
  %4 = getelementptr inbounds nuw i8, ptr %1, i64 4
  %5 = load i32, ptr %4, align 4
  %6 = getelementptr inbounds nuw i8, ptr %1, i64 16
  %7 = sext i32 %2 to i64
  %8 = getelementptr inbounds [32 x i16], ptr %6, i64 0, i64 %7
  %9 = load i16, ptr %8, align 2
  %10 = getelementptr inbounds nuw i8, ptr %1, i64 8
  %11 = load i32, ptr %10, align 8
  %12 = getelementptr inbounds nuw i8, ptr %1, i64 80
  %13 = getelementptr inbounds [32 x i16], ptr %12, i64 0, i64 %7
  %14 = load i16, ptr %13, align 2
  %15 = getelementptr inbounds nuw i8, ptr %1, i64 144
  %16 = getelementptr inbounds [32 x i32], ptr %15, i64 0, i64 %7
  %17 = load i32, ptr %16, align 4
  %18 = getelementptr inbounds nuw i8, ptr %0, i64 56
  %19 = load ptr, ptr %18, align 8
  %20 = zext i32 %5 to i64
  %21 = getelementptr inbounds nuw ptr, ptr %19, i64 %20
  %22 = load ptr, ptr %21, align 8
  %23 = zext i32 %11 to i64
  %24 = getelementptr inbounds nuw ptr, ptr %19, i64 %23
  %25 = load ptr, ptr %24, align 8
  %26 = getelementptr inbounds nuw i8, ptr %22, i64 216
  %27 = load ptr, ptr %26, align 8
  %28 = getelementptr inbounds nuw i8, ptr %25, i64 216
  %29 = load ptr, ptr %28, align 8
  %30 = tail call ptr @bms_intersect(ptr noundef %27, ptr noundef %29) #8
  %31 = tail call i32 @bms_next_member(ptr noundef %30, i32 noundef -1) #8
  %32 = icmp sgt i32 %31, -1
  br i1 %32, label %.lr.ph118, label %.loopexit107

.lr.ph118:                                        ; preds = %3
  %33 = getelementptr inbounds nuw i8, ptr %0, i64 176
  br label %34

34:                                               ; preds = %.lr.ph118, %.thread
  %35 = phi i32 [ %31, %.lr.ph118 ], [ %88, %.thread ]
  %.060117 = phi ptr [ null, %.lr.ph118 ], [ %.161, %.thread ]
  %36 = load ptr, ptr %33, align 8
  %37 = getelementptr i8, ptr %36, i64 16
  %.val = load ptr, ptr %37, align 8
  %38 = zext nneg i32 %35 to i64
  %39 = getelementptr inbounds nuw %union.ListCell, ptr %.val, i64 %38
  %40 = load ptr, ptr %39, align 8
  %41 = getelementptr inbounds nuw i8, ptr %40, i64 57
  %42 = load i8, ptr %41, align 1, !range !4, !noundef !5
  %43 = trunc nuw i8 %42 to i1
  br i1 %43, label %.thread, label %44, !llvm.loop !21

44:                                               ; preds = %34
  %45 = getelementptr inbounds nuw i8, ptr %40, i64 24
  %46 = load ptr, ptr %45, align 8
  %.not = icmp eq ptr %46, null
  br i1 %.not, label %.thread, label %.lr.ph

.lr.ph:                                           ; preds = %44
  %47 = getelementptr inbounds nuw i8, ptr %46, i64 4
  %48 = load i32, ptr %47, align 4
  %49 = icmp sgt i32 %48, 0
  br i1 %49, label %.lr.ph116, label %.thread

.lr.ph116:                                        ; preds = %.lr.ph
  %50 = getelementptr inbounds nuw i8, ptr %46, i64 16
  %51 = load ptr, ptr %50, align 8
  %wide.trip.count = zext nneg i32 %48 to i64
  br label %52

52:                                               ; preds = %.lr.ph116, %.loopexit
  %indvars.iv = phi i64 [ 0, %.lr.ph116 ], [ %indvars.iv.next, %.loopexit ]
  %.074109115 = phi ptr [ null, %.lr.ph116 ], [ %.175.ph, %.loopexit ]
  %.071110114 = phi ptr [ null, %.lr.ph116 ], [ %.172.ph, %.loopexit ]
  %53 = getelementptr inbounds nuw %union.ListCell, ptr %51, i64 %indvars.iv
  %54 = load ptr, ptr %53, align 8
  %55 = getelementptr inbounds nuw i8, ptr %54, i64 25
  %56 = load i8, ptr %55, align 1, !range !4, !noundef !5
  %57 = trunc nuw i8 %56 to i1
  br i1 %57, label %.loopexit, label %.preheader

.preheader:                                       ; preds = %52, %58
  %.pn = phi ptr [ %.0, %58 ], [ %54, %52 ]
  %.0.in = getelementptr inbounds nuw i8, ptr %.pn, i64 8
  %.0 = load ptr, ptr %.0.in, align 8
  %.not80 = icmp eq ptr %.0, null
  br i1 %.not80, label %.loopexit, label %58

58:                                               ; preds = %.preheader
  %59 = load i32, ptr %.0, align 4
  switch i32 %59, label %.loopexit [
    i32 27, label %.preheader
    i32 6, label %60
  ]

60:                                               ; preds = %58
  %61 = getelementptr inbounds nuw i8, ptr %.0, i64 4
  %62 = load i32, ptr %61, align 4
  %63 = icmp eq i32 %62, %5
  br i1 %63, label %64, label %68

64:                                               ; preds = %60
  %65 = getelementptr inbounds nuw i8, ptr %.0, i64 8
  %66 = load i16, ptr %65, align 8
  %67 = icmp eq i16 %66, %9
  br i1 %67, label %74, label %68

68:                                               ; preds = %64, %60
  %69 = icmp eq i32 %62, %11
  br i1 %69, label %70, label %74

70:                                               ; preds = %68
  %71 = getelementptr inbounds nuw i8, ptr %.0, i64 8
  %72 = load i16, ptr %71, align 8
  %73 = icmp eq i16 %72, %14
  %spec.select = select i1 %73, ptr %54, ptr %.071110114
  br label %74

74:                                               ; preds = %70, %64, %68
  %.276 = phi ptr [ %.074109115, %68 ], [ %54, %64 ], [ %.074109115, %70 ]
  %.273 = phi ptr [ %.071110114, %68 ], [ %.071110114, %64 ], [ %spec.select, %70 ]
  %75 = icmp ne ptr %.276, null
  %76 = icmp ne ptr %.273, null
  %or.cond = select i1 %75, i1 %76, i1 false
  br i1 %or.cond, label %.split.us, label %.loopexit

.split.us:                                        ; preds = %74
  %77 = icmp eq ptr %.060117, null
  br i1 %77, label %78, label %80

78:                                               ; preds = %.split.us
  %79 = tail call ptr @get_mergejoin_opfamilies(i32 noundef %17) #8
  br label %80

80:                                               ; preds = %78, %.split.us
  %.565 = phi ptr [ %79, %78 ], [ %.060117, %.split.us ]
  %81 = getelementptr inbounds nuw i8, ptr %40, i64 8
  %82 = load ptr, ptr %81, align 8
  %83 = tail call zeroext i1 @equal(ptr noundef %.565, ptr noundef %82) #8
  br i1 %83, label %.thread103, label %.thread

.loopexit:                                        ; preds = %58, %.preheader, %52, %74
  %.175.ph = phi ptr [ %.276, %74 ], [ %.074109115, %52 ], [ %.074109115, %.preheader ], [ %.074109115, %58 ]
  %.172.ph = phi ptr [ %.273, %74 ], [ %.071110114, %52 ], [ %.071110114, %.preheader ], [ %.071110114, %58 ]
  %indvars.iv.next = add nuw nsw i64 %indvars.iv, 1
  %exitcond.not = icmp eq i64 %indvars.iv.next, %wide.trip.count
  br i1 %exitcond.not, label %.thread, label %52

.thread103:                                       ; preds = %80
  %84 = getelementptr inbounds nuw i8, ptr %1, i64 288
  %85 = getelementptr inbounds [32 x ptr], ptr %84, i64 0, i64 %7
  store ptr %40, ptr %85, align 8
  %86 = getelementptr inbounds nuw i8, ptr %1, i64 544
  %87 = getelementptr inbounds [32 x ptr], ptr %86, i64 0, i64 %7
  store ptr %.273, ptr %87, align 8
  br label %.loopexit107

.thread:                                          ; preds = %.loopexit, %44, %.lr.ph, %80, %34
  %.161 = phi ptr [ %.060117, %34 ], [ %.565, %80 ], [ %.060117, %.lr.ph ], [ %.060117, %44 ], [ %.060117, %.loopexit ]
  %88 = tail call i32 @bms_next_member(ptr noundef %30, i32 noundef %35) #8
  %89 = icmp sgt i32 %88, -1
  br i1 %89, label %34, label %.loopexit107

.loopexit107:                                     ; preds = %.thread, %3, %.thread103
  %.5 = phi ptr [ %40, %.thread103 ], [ null, %3 ], [ null, %.thread ]
  ret ptr %.5
}